; Function Attrs: mustprogress nofree nounwind willreturn memory(read, inaccessiblemem: none) uwtable
define dso_local range(i64 0, 2) i64 @uuid_ge(ptr noundef readonly captures(none) %0) local_unnamed_addr #4 {
  %2 = getelementptr inbounds nuw i8, ptr %0, i64 32
  %3 = load i64, ptr %2, align 8
  %4 = inttoptr i64 %3 to ptr
  %5 = getelementptr inbounds nuw i8, ptr %0, i64 48
  %6 = load i64, ptr %5, align 8
  %7 = inttoptr i64 %6 to ptr
  %8 = tail call i32 @memcmp(ptr noundef nonnull readonly dereferenceable(16) %4, ptr noundef nonnull readonly dereferenceable(16) %7, i64 noundef 16) #17
  %9 = icmp sgt i32 %8, -1
  %10 = zext i1 %9 to i64
  ret i64 %10
}